; Function Attrs: mustprogress uwtable
define void @_ZN6duckdb18StructColumnReader14InitializeReadEmRKNS_6vectorIN14duckdb_parquet11ColumnChunkELb1EEERN13duckdb_apache6thrift8protocol9TProtocolE(ptr noundef nonnull readonly align 8 captures(none) dereferenceable(568) %0, i64 noundef %1, ptr noundef nonnull align 8 dereferenceable(24) %2, ptr noundef nonnull align 8 dereferenceable(36) %3) unnamed_addr #3 align 2 {
  %5 = getelementptr inbounds nuw i8, ptr %0, i64 544
  %6 = load ptr, ptr %5, align 8, !tbaa !405
  %7 = getelementptr inbounds nuw i8, ptr %0, i64 552
  %8 = load ptr, ptr %7, align 8, !tbaa !405
  %.not11 = icmp eq ptr %6, %8
  br i1 %.not11, label %._crit_edge, label %.lr.ph

._crit_edge:                                      ; preds = %15, %4
  ret void

.lr.ph:                                           ; preds = %4, %15
  %.sroa.07.012 = phi ptr [ %16, %15 ], [ %6, %4 ]
  %9 = load ptr, ptr %.sroa.07.012, align 8, !tbaa !6
  %.not10 = icmp eq ptr %9, null
  br i1 %.not10, label %15, label %10

10:                                               ; preds = %.lr.ph
  %11 = tail call noundef ptr @_ZNK6duckdb10unique_ptrINS_12ColumnReaderESt14default_deleteIS1_ELb1EEptEv(ptr noundef nonnull align 8 dereferenceable(8) %.sroa.07.012)
  %12 = load ptr, ptr %11, align 8, !tbaa !3
  %13 = getelementptr inbounds nuw i8, ptr %12, i64 16
  %14 = load ptr, ptr %13, align 8
  tail call void %14(ptr noundef nonnull align 8 dereferenceable(544) %11, i64 noundef %1, ptr noundef nonnull align 8 dereferenceable(24) %2, ptr noundef nonnull align 8 dereferenceable(36) %3)
  br label %15

15:                                               ; preds = %.lr.ph, %10
  %16 = getelementptr inbounds nuw i8, ptr %.sroa.07.012, i64 8
  %.not = icmp eq ptr %16, %8
  br i1 %.not, label %._crit_edge, label %.lr.ph
}